; Function Attrs: mustprogress uwtable
define hidden void @_ZNK4cvc58internal3smt11SetDefaults18notifyModifyOptionERKNSt7__cxx1112basic_stringIcSt11char_traitsIcESaIcEEESA_SA_(ptr noundef nonnull align 8 dereferenceable(17) %this, ptr noundef nonnull align 8 dereferenceable(32) %x, ptr noundef nonnull align 8 dereferenceable(32) %val, ptr noundef nonnull align 8 dereferenceable(32) %reason) local_unnamed_addr #3 align 2 {
entry:
  %call = tail call noundef nonnull align 8 dereferenceable(8) ptr @_ZNK4cvc58internal6EnvObj7verboseEl(ptr noundef nonnull align 8 dereferenceable(16) %this, i64 noundef 1)
  %call2 = tail call noundef nonnull align 8 dereferenceable(8) ptr @_ZStlsISt11char_traitsIcEERSt13basic_ostreamIcT_ES5_PKc(ptr noundef nonnull align 8 dereferenceable(8) %call, ptr noundef nonnull @.str.224)
  %call3 = tail call noundef nonnull align 8 dereferenceable(8) ptr @_ZStlsIcSt11char_traitsIcESaIcEERSt13basic_ostreamIT_T0_ES7_RKNSt7__cxx1112basic_stringIS4_S5_T1_EE(ptr noundef nonnull align 8 dereferenceable(8) %call2, ptr noundef nonnull align 8 dereferenceable(32) %x)
  %call4 = tail call noundef nonnull align 8 dereferenceable(8) ptr @_ZStlsISt11char_traitsIcEERSt13basic_ostreamIcT_ES5_PKc(ptr noundef nonnull align 8 dereferenceable(8) %call3, ptr noundef nonnull @.str.225)
  %call5 = tail call noundef nonnull align 8 dereferenceable(8) ptr @_ZStlsIcSt11char_traitsIcESaIcEERSt13basic_ostreamIT_T0_ES7_RKNSt7__cxx1112basic_stringIS4_S5_T1_EE(ptr noundef nonnull align 8 dereferenceable(8) %call4, ptr noundef nonnull align 8 dereferenceable(32) %val)
  %call6 = tail call noundef zeroext i1 @_ZNKSt7__cxx1112basic_stringIcSt11char_traitsIcESaIcEE5emptyEv(ptr noundef nonnull align 8 dereferenceable(32) %reason) #13
  br i1 %call6, label %if.end, label %if.then

if.then:                                          ; preds = %entry
  %call7 = tail call noundef nonnull align 8 dereferenceable(8) ptr @_ZNK4cvc58internal6EnvObj7verboseEl(ptr noundef nonnull align 8 dereferenceable(16) %this, i64 noundef 1)
  %call8 = tail call noundef nonnull align 8 dereferenceable(8) ptr @_ZStlsISt11char_traitsIcEERSt13basic_ostreamIcT_ES5_PKc(ptr noundef nonnull align 8 dereferenceable(8) %call7, ptr noundef nonnull @.str.226)
  %call9 = tail call noundef nonnull align 8 dereferenceable(8) ptr @_ZStlsIcSt11char_traitsIcESaIcEERSt13basic_ostreamIT_T0_ES7_RKNSt7__cxx1112basic_stringIS4_S5_T1_EE(ptr noundef nonnull align 8 dereferenceable(8) %call8, ptr noundef nonnull align 8 dereferenceable(32) %reason)
  br label %if.end

if.end:                                           ; preds = %if.then, %entry
  %call10 = tail call noundef nonnull align 8 dereferenceable(8) ptr @_ZNK4cvc58internal6EnvObj7verboseEl(ptr noundef nonnull align 8 dereferenceable(16) %this, i64 noundef 1)
  %call11 = tail call noundef nonnull align 8 dereferenceable(8) ptr @_ZNSolsEPFRSoS_E(ptr noundef nonnull align 8 dereferenceable(8) %call10, ptr noundef nonnull @_ZSt4endlIcSt11char_traitsIcEERSt13basic_ostreamIT_T0_ES6_)
  ret void
}